target datalayout = "e-m:e-p270:32:32-p271:32:32-p272:64:64-i64:64-i128:128-f80:128-n8:16:32:64-S128"
target triple = "x86_64-pc-linux-gnu"

; Function Attrs: nounwind uwtable
define internal i32 @WebPCheckCropDimensionsBasic(i32 noundef %0, i32 noundef %1, i32 noundef %2, i32 noundef %3) #0 {
  %5 = alloca i32, align 4
  %6 = alloca i32, align 4
  %7 = alloca i32, align 4
  %8 = alloca i32, align 4
  store i32 %0, ptr %5, align 4, !tbaa !7
  store i32 %1, ptr %6, align 4, !tbaa !7
  store i32 %2, ptr %7, align 4, !tbaa !7
  store i32 %3, ptr %8, align 4, !tbaa !7
  %9 = load i32, ptr %5, align 4, !tbaa !7
  %10 = icmp slt i32 %9, 0
  br i1 %10, label %20, label %11

11:                                               ; preds = %4
  %12 = load i32, ptr %6, align 4, !tbaa !7
  %13 = icmp slt i32 %12, 0
  br i1 %13, label %20, label %14

14:                                               ; preds = %11
  %15 = load i32, ptr %7, align 4, !tbaa !7
  %16 = icmp sle i32 %15, 0
  br i1 %16, label %20, label %17

17:                                               ; preds = %14
  %18 = load i32, ptr %8, align 4, !tbaa !7
  %19 = icmp sle i32 %18, 0
  br label %20

20:                                               ; preds = %17, %14, %11, %4
  %21 = phi i1 [ true, %14 ], [ true, %11 ], [ true, %4 ], [ %19, %17 ]
  %22 = xor i1 %21, true
  %23 = zext i1 %22 to i32
  ret i32 %23
}

; Function Attrs: nounwind uwtable
define hidden i32 @WebPCheckCropDimensions(i32 noundef %0, i32 noundef %1, i32 noundef %2, i32 noundef %3, i32 noundef %4, i32 noundef %5) #0 {
  %7 = alloca i32, align 4
  %8 = alloca i32, align 4
  %9 = alloca i32, align 4
  %10 = alloca i32, align 4
  %11 = alloca i32, align 4
  %12 = alloca i32, align 4
  store i32 %0, ptr %7, align 4, !tbaa !7
  store i32 %1, ptr %8, align 4, !tbaa !7
  store i32 %2, ptr %9, align 4, !tbaa !7
  store i32 %3, ptr %10, align 4, !tbaa !7
  store i32 %4, ptr %11, align 4, !tbaa !7
  store i32 %5, ptr %12, align 4, !tbaa !7
  %13 = load i32, ptr %9, align 4, !tbaa !7
  %14 = load i32, ptr %10, align 4, !tbaa !7
  %15 = load i32, ptr %11, align 4, !tbaa !7
  %16 = load i32, ptr %12, align 4, !tbaa !7
  %17 = call i32 @WebPCheckCropDimensionsBasic(i32 noundef %13, i32 noundef %14, i32 noundef %15, i32 noundef %16)
  %18 = icmp ne i32 %17, 0
  br i1 %18, label %19, label %50

19:                                               ; preds = %6
  %20 = load i32, ptr %9, align 4, !tbaa !7
  %21 = load i32, ptr %7, align 4, !tbaa !7
  %22 = icmp sge i32 %20, %21
  br i1 %22, label %47, label %23

23:                                               ; preds = %19
  %24 = load i32, ptr %11, align 4, !tbaa !7
  %25 = load i32, ptr %7, align 4, !tbaa !7
  %26 = icmp sgt i32 %24, %25
  br i1 %26, label %47, label %27

27:                                               ; preds = %23
  %28 = load i32, ptr %11, align 4, !tbaa !7
  %29 = load i32, ptr %7, align 4, !tbaa !7
  %30 = load i32, ptr %9, align 4, !tbaa !7
  %31 = sub nsw i32 %29, %30
  %32 = icmp sgt i32 %28, %31
  br i1 %32, label %47, label %33

33:                                               ; preds = %27
  %34 = load i32, ptr %10, align 4, !tbaa !7
  %35 = load i32, ptr %8, align 4, !tbaa !7
  %36 = icmp sge i32 %34, %35
  br i1 %36, label %47, label %37

37:                                               ; preds = %33
  %38 = load i32, ptr %12, align 4, !tbaa !7
  %39 = load i32, ptr %8, align 4, !tbaa !7
  %40 = icmp sgt i32 %38, %39
  br i1 %40, label %47, label %41

41:                                               ; preds = %37
  %42 = load i32, ptr %12, align 4, !tbaa !7
  %43 = load i32, ptr %8, align 4, !tbaa !7
  %44 = load i32, ptr %10, align 4, !tbaa !7
  %45 = sub nsw i32 %43, %44
  %46 = icmp sgt i32 %42, %45
  br label %47

47:                                               ; preds = %41, %37, %33, %27, %23, %19
  %48 = phi i1 [ true, %37 ], [ true, %33 ], [ true, %27 ], [ true, %23 ], [ true, %19 ], [ %46, %41 ]
  %49 = xor i1 %48, true
  br label %50

50:                                               ; preds = %47, %6
  %51 = phi i1 [ false, %6 ], [ %49, %47 ]
  %52 = zext i1 %51 to i32
  ret i32 %52
}