; Function Attrs: mustprogress nofree norecurse nosync nounwind willreturn memory(none) uwtable
define hidden range(i32 0, 2) i32 @WebPCheckCropDimensions(i32 noundef %0, i32 noundef %1, i32 noundef %2, i32 noundef %3, i32 noundef %4, i32 noundef %5) local_unnamed_addr #5 {
  %7 = or i32 %3, %2
  %or.cond.i = icmp slt i32 %7, 0
  %8 = icmp slt i32 %4, 1
  %9 = icmp slt i32 %5, 1
  %.not31 = or i1 %8, %9
  %narrow.i.not = or i1 %or.cond.i, %.not31
  br i1 %narrow.i.not, label %18, label %10

10:                                               ; preds = %6
  %.not23 = icmp slt i32 %2, %0
  %11 = icmp sle i32 %4, %0
  %or.cond.not34.not38.not43 = and i1 %.not23, %11
  %12 = sub nsw i32 %0, %2
  %13 = icmp sle i32 %4, %12
  %or.cond26.not32.not36.not41 = select i1 %or.cond.not34.not38.not43, i1 %13, i1 false
  %.not24 = icmp slt i32 %3, %1
  %or.cond27.not35.not39 = and i1 %.not24, %or.cond26.not32.not36.not41
  %14 = icmp sle i32 %5, %1
  %or.cond28.not = and i1 %14, %or.cond27.not35.not39
  %15 = sub nsw i32 %1, %3
  %16 = icmp sle i32 %5, %15
  %narrow = select i1 %or.cond28.not, i1 %16, i1 false
  %17 = zext i1 %narrow to i32
  br label %18

18:                                               ; preds = %10, %6
  %19 = phi i32 [ 0, %6 ], [ %17, %10 ]
  ret i32 %19
}